<?xml version="1.0" encoding="UTF-8"?>
<!DOCTYPE html PUBLIC "-//W3C//DTD XHTML 1.0 Strict//EN"
    "http://www.w3.org/TR/xhtml1/DTD/xhtml1-strict.dtd">
<html xmlns="http://www.w3.org/1999/xhtml" xml:lang="en" lang="en">
<head>
<meta name="robots" content="noindex,nofollow" />
<meta http-equiv="Content-Type" content="text/html; charset=UTF-8" />
<meta name="generator" content="{OpenGrok 0.12.1.5 (d305482d0acf552ccd290d6133a52547b8da16be)" />
<meta http-equiv="X-UA-Compatible" content="IE=8" />
<link rel="icon" href="/opengrok/default/img/icon.png" type="image/png" />
<link rel="stylesheet" type="text/css" media="all"
    title="Default" href="/opengrok/default/style.css" />
<link rel="alternate stylesheet" type="text/css" media="all"
    title="Paper White" href="/opengrok/default/print.css" />
<link rel="stylesheet" type="text/css" href="/opengrok/default/print.css" media="print" />
<link rel="stylesheet" type="text/css" href="/opengrok/default/jquery.tooltip.css" />

<link rel="search" href="/opengrok/opensearch"
    type="application/opensearchdescription+xml"
    title="OpenGrok Search for current project(s)" />
<script type="text/javascript" src="/opengrok/jquery-1.4.4.min.js"></script>
<script type="text/javascript" src="/opengrok/jquery.tooltip-1.3.pack.js"></script>

<script type="text/javascript" src="/opengrok/utils.js"></script>
<title>Cross Reference: /miui-q-cannon-dev/vendor/mediatek/proprietary/external/aurisys/libmisound/libmisound_32.so</title>
</head><body>
<script type="text/javascript">/* <![CDATA[ */
    document.hash = 'null';document.rev = '';document.link = '/opengrok/xref/miui-q-cannon-dev/vendor/mediatek/proprietary/external/aurisys/libmisound/libmisound_32.so';document.annotate = false;
    document.domReady.push(function() {domReadyMast();});
    document.pageReady.push(function() { pageReadyMast();});
/* ]]> */</script>
<div id="page">
    <div id="whole_header">
        <form action="/opengrok/search">
<div id="header">
<a href="/opengrok/"><span id="MastheadLogo"></span></a>



    <div id="pagetitle"><span id="filename"
                    >Cross Reference: libmisound_32.so</span></div>
</div>
<div id="Masthead">
    <tt><a href="/opengrok/xref/">xref</a>: /<a href="/opengrok/xref/miui-q-cannon-dev/">miui-q-cannon-dev</a>/<a href="/opengrok/xref/miui-q-cannon-dev/vendor/">vendor</a>/<a href="/opengrok/xref/miui-q-cannon-dev/vendor/mediatek/">mediatek</a>/<a href="/opengrok/xref/miui-q-cannon-dev/vendor/mediatek/proprietary/">proprietary</a>/<a href="/opengrok/xref/miui-q-cannon-dev/vendor/mediatek/proprietary/external/">external</a>/<a href="/opengrok/xref/miui-q-cannon-dev/vendor/mediatek/proprietary/external/aurisys/">aurisys</a>/<a href="/opengrok/xref/miui-q-cannon-dev/vendor/mediatek/proprietary/external/aurisys/libmisound/">libmisound</a>/<a href="/opengrok/xref/miui-q-cannon-dev/vendor/mediatek/proprietary/external/aurisys/libmisound/libmisound_32.so">libmisound_32.so</a></tt>
</div>
<div id="bar">
    <ul>
        <li><a href="/opengrok/"><span id="home"></span>Home</a></li><li><span id="history"></span><span class="c">History</span></li><li><span class="c"><span class="annotate"></span>Annotate</span></li><li><a href="#" onclick="javascript:lntoggle();return false;"
            title="Show or hide line numbers (might be slower if file has more than 10 000 lines)."><span id="line"></span>Line#</a></li><li><a
            href="#" onclick="javascript:lsttoggle();return false;"
            title="Show or hide symbol list."><span id="defbox"></span>Navigate</a></li>
	<li><a href="/opengrok/raw/miui-q-cannon-dev/vendor/mediatek/proprietary/external/aurisys/libmisound/libmisound_32.so"><span id="raw"></span>Raw</a></li>
	<li><a href="/opengrok/download/miui-q-cannon-dev/vendor/mediatek/proprietary/external/aurisys/libmisound/libmisound_32.so"><span id="download"></span>Download</a></li>
	<li><input type="text" id="search" name="q" class="q" />
            <input type="submit" value="Search" class="submit" /></li><li><input type="checkbox" name="path" value='"/miui-q-cannon-dev/vendor/mediatek/proprietary/external/aurisys/libmisound/"' /> only in <b>/miui-q-cannon-dev/vendor/mediatek/proprietary/external/aurisys/libmisound/</b></li>
    </ul>
    <input type="hidden" name="project" value="miui-q-cannon-dev" />
</div>
        </form>
    </div>
<div id="content">

<script type="text/javascript">/* <![CDATA[ */
document.pageReady.push(function() { pageReadyList();});
/* ]]> */</script>

<div id="src">
    <pre></pre>libcutils.so libutils.so liblog.so libc++.so libc.so libm.so libdl.so libmisound.so __cxa_finalize LIBC __aeabi_memclr __android_log_print LIBLOG __stack_chk_fail __stack_chk_guard __vsnprintf_chk fclose fopen fread free fseek ftell malloc misound_arsi_load_param misound_arsi_parsing_param_file_by_custom_info misound_arsi_query_param_buf_size_by_custom_info rewind _ZN9MisoundFX10MisoundFX410getVersionEv _ZN9MisoundFX10MisoundFX410setFxParamEij _ZN9MisoundFX10MisoundFX412getBuildDateEv _ZN9MisoundFX10MisoundFX415processWrapper1EPPiS2_ji _ZN9MisoundFX10MisoundFX424getResFileReferenceCountEi _ZN9MisoundFX10MisoundFX424setFxParamWithValueArrayEiPj _ZN9MisoundFX10MisoundFX4C1EfiPc _ZNKSt3__121__basic_string_commonILb1EE20__throw_length_errorEv _ZNSt3__14stofERKNS_12basic_stringIcNS_11char_traitsIcEENS_9allocatorIcEEEEPj _ZNSt3__14stoiERKNS_12basic_stringIcNS_11char_traitsIcEENS_9allocatorIcEEEEPji _ZSt9terminatev _ZTISt11logic_error _ZTISt16invalid_argument _ZTISt9exception _ZTSSt11logic_error _ZTSSt16invalid_argument _ZTSSt9exception _ZTVN10__cxxabiv117__class_type_infoE _ZTVN10__cxxabiv120__si_class_type_infoE _ZdlPv _Znwj __aeabi_memclr8 __aeabi_memcpy __cxa_begin_catch __cxa_end_catch __gxx_personality_v0 __strcat_chk __strncpy_chk2 dynamic_link_arsi_assign_lib_fp memcmp misound_arsi_assign_lib_fp misound_arsi_create_handler misound_arsi_destroy_handler misound_arsi_get_addr_value misound_arsi_get_key_value_pair misound_arsi_get_lib_version misound_arsi_process_dl_buf misound_arsi_process_ul_buf misound_arsi_query_max_debug_dump_buf_size misound_arsi_query_process_unit_bytes misound_arsi_query_working_buf_size misound_arsi_reset_handler misound_arsi_set_addr_value misound_arsi_set_debug_log_fp misound_arsi_set_dl_digital_gain misound_arsi_set_dl_enhance misound_arsi_set_dl_mute misound_arsi_set_key_value_pair misound_arsi_set_ul_digital_gain misound_arsi_set_ul_enhance misound_arsi_set_ul_mute misound_arsi_update_device misound_arsi_update_param strcmp strlen strtok _ZN9MisoundFX22MisoundFX4_Biquad_Impl12setParameterEif _ZN9MisoundFX22MisoundFX4_Biquad_Impl18biquadSetParameterEPf _ZN9MisoundFX22MisoundFX4_Biquad_Impl19Biquad_Process_NeonEPffi _ZN9MisoundFX22MisoundFX4_Biquad_Impl5resetEv _ZN9MisoundFX22MisoundFX4_Biquad_Impl7processEPfi _ZN9MisoundFX22MisoundFX4_Biquad_Impl8setCoeffEPf _ZN9MisoundFX22MisoundFX4_Biquad_Impl9calcCoeffEv _ZN9MisoundFX22MisoundFX4_Biquad_ImplC1Ef _ZN9MisoundFX22MisoundFX4_Biquad_ImplC2Ef _ZN9MisoundFX22MisoundFX4_Biquad_ImplD0Ev _ZN9MisoundFX22MisoundFX4_Biquad_ImplD1Ev _ZN9MisoundFX22MisoundFX4_Biquad_ImplD2Ev _ZN9MisoundFX25MisoundFX4_Processor_ImplC2Ef _ZN9MisoundFX25MisoundFX4_Processor_ImplD2Ev _ZNK9MisoundFX25MisoundFX4_Processor_Impl13getSamplerateEv _ZTVN9MisoundFX22MisoundFX4_Biquad_ImplE cosf pow sinf sinh _ZN9MisoundFX26MisoundFX4_Compressor_Impl12process_NeonEPfi _ZN9MisoundFX26MisoundFX4_Compressor_Impl12setParameterEif _ZN9MisoundFX26MisoundFX4_Compressor_Impl13processSampleEf _ZN9MisoundFX26MisoundFX4_Compressor_Impl5resetEv _ZN9MisoundFX26MisoundFX4_Compressor_Impl7processEPfi _ZN9MisoundFX26MisoundFX4_Compressor_ImplC1Ef _ZN9MisoundFX26MisoundFX4_Compressor_ImplC2Ef _ZN9MisoundFX26MisoundFX4_Compressor_ImplD0Ev _ZN9MisoundFX26MisoundFX4_Compressor_ImplD1Ev _ZN9MisoundFX26MisoundFX4_Compressor_ImplD2Ev _ZTVN9MisoundFX26MisoundFX4_Compressor_ImplE calloc expf logf powf _ZN9MisoundFX25MisoundFX4_Crossfade_Impl12setParameterEif _ZN9MisoundFX25MisoundFX4_Crossfade_Impl5resetEv _ZN9MisoundFX25MisoundFX4_Crossfade_Impl7processEPPfS2_ii _ZN9MisoundFX25MisoundFX4_Crossfade_Impl7processEPfi _ZN9MisoundFX25MisoundFX4_Crossfade_ImplC1Ef _ZN9MisoundFX25MisoundFX4_Crossfade_ImplC2Ef _ZN9MisoundFX25MisoundFX4_Crossfade_ImplD0Ev _ZN9MisoundFX25MisoundFX4_Crossfade_ImplD1Ev _ZN9MisoundFX25MisoundFX4_Crossfade_ImplD2Ev _ZTVN9MisoundFX25MisoundFX4_Crossfade_ImplE _ZN9MisoundFX19MisoundFX4_DEQ_Impl12setParameterEif _ZN9MisoundFX19MisoundFX4_DEQ_Impl5resetEv _ZN9MisoundFX19MisoundFX4_DEQ_Impl7processEPfi _ZN9MisoundFX19MisoundFX4_DEQ_ImplC1Ef _ZN9MisoundFX19MisoundFX4_DEQ_ImplC2Ef _ZN9MisoundFX19MisoundFX4_DEQ_ImplD0Ev _ZN9MisoundFX19MisoundFX4_DEQ_ImplD1Ev _ZN9MisoundFX19MisoundFX4_DEQ_ImplD2Ev _ZTVN9MisoundFX19MisoundFX4_DEQ_ImplE _ZN9MisoundFX24MisoundFX4_Doubler2_Impl12setParameterEif _ZN9MisoundFX24MisoundFX4_Doubler2_Impl5resetEv _ZN9MisoundFX24MisoundFX4_Doubler2_Impl7processEPfS1_i _ZN9MisoundFX24MisoundFX4_Doubler2_Impl7processEPfi _ZN9MisoundFX24MisoundFX4_Doubler2_ImplC1Ef _ZN9MisoundFX24MisoundFX4_Doubler2_ImplC2Ef _ZN9MisoundFX24MisoundFX4_Doubler2_ImplD0Ev _ZN9MisoundFX24MisoundFX4_Doubler2_ImplD1Ev _ZN9MisoundFX24MisoundFX4_Doubler2_ImplD2Ev _ZTVN9MisoundFX24MisoundFX4_Doubler2_ImplE _ZdaPv _Znaj __aeabi_memmove _ZN9MisoundFX18MisoundFX4_EQ_Impl11setBandGainEfi _ZN9MisoundFX18MisoundFX4_EQ_Impl12setParameterEif _ZN9MisoundFX18MisoundFX4_EQ_Impl5resetEv _ZN9MisoundFX18MisoundFX4_EQ_Impl7processEPfi _ZN9MisoundFX18MisoundFX4_EQ_ImplC1Ef _ZN9MisoundFX18MisoundFX4_EQ_ImplC2Ef _ZN9MisoundFX18MisoundFX4_EQ_ImplD0Ev _ZN9MisoundFX18MisoundFX4_EQ_ImplD1Ev _ZN9MisoundFX18MisoundFX4_EQ_ImplD2Ev _ZTVN9MisoundFX18MisoundFX4_EQ_ImplE _ZN9MisoundFX25MisoundFX4_EarCompen_Impl10getAgeModeEv _ZN9MisoundFX25MisoundFX4_EarCompen_Impl10setAgeModeEj _ZN9MisoundFX25MisoundFX4_EarCompen_Impl12setParameterEif _ZN9MisoundFX25MisoundFX4_EarCompen_Impl5resetEv _ZN9MisoundFX25MisoundFX4_EarCompen_Impl7getGainEPj _ZN9MisoundFX25MisoundFX4_EarCompen_Impl7processEPfi _ZN9MisoundFX25MisoundFX4_EarCompen_Impl7setGainEPj _ZN9MisoundFX25MisoundFX4_EarCompen_ImplC1Ef _ZN9MisoundFX25MisoundFX4_EarCompen_ImplC2Ef _ZN9MisoundFX25MisoundFX4_EarCompen_ImplD0Ev _ZN9MisoundFX25MisoundFX4_EarCompen_ImplD1Ev _ZN9MisoundFX25MisoundFX4_EarCompen_ImplD2Ev _ZTVN9MisoundFX25MisoundFX4_EarCompen_ImplE _ZN9MisoundFX24MisoundFX4_Expander_Impl12setParameterEif _ZN9MisoundFX24MisoundFX4_Expander_Impl13processSampleEf _ZN9MisoundFX24MisoundFX4_Expander_Impl5resetEv _ZN9MisoundFX24MisoundFX4_Expander_Impl7processEPfi _ZN9MisoundFX24MisoundFX4_Expander_ImplC1Ef _ZN9MisoundFX24MisoundFX4_Expander_ImplC2Ef _ZN9MisoundFX24MisoundFX4_Expander_ImplD0Ev _ZN9MisoundFX24MisoundFX4_Expander_ImplD1Ev _ZN9MisoundFX24MisoundFX4_Expander_ImplD2Ev _ZTVN9MisoundFX24MisoundFX4_Expander_ImplE log10f _ZN9MisoundFX20MisoundFX4_Fade_Impl11changeStateEi _ZN9MisoundFX20MisoundFX4_Fade_Impl12setParameterEif _ZN9MisoundFX20MisoundFX4_Fade_Impl5resetEv _ZN9MisoundFX20MisoundFX4_Fade_Impl7processEPfi _ZN9MisoundFX20MisoundFX4_Fade_Impl8getStateEv _ZN9MisoundFX20MisoundFX4_Fade_ImplC1Ef _ZN9MisoundFX20MisoundFX4_Fade_ImplC2Ef _ZN9MisoundFX20MisoundFX4_Fade_ImplD0Ev _ZN9MisoundFX20MisoundFX4_Fade_ImplD1Ev _ZN9MisoundFX20MisoundFX4_Fade_ImplD2Ev _ZTVN9MisoundFX20MisoundFX4_Fade_ImplE _ZN9MisoundFX24MisoundFX4_FastConv_Impl12setParameterEif _ZN9MisoundFX24MisoundFX4_FastConv_Impl5resetEv _ZN9MisoundFX24MisoundFX4_FastConv_Impl7processEPfi _ZN9MisoundFX24MisoundFX4_FastConv_ImplC1EPfif _ZN9MisoundFX24MisoundFX4_FastConv_ImplC2EPfif _ZN9MisoundFX24MisoundFX4_FastConv_ImplD0Ev _ZN9MisoundFX24MisoundFX4_FastConv_ImplD1Ev _ZN9MisoundFX24MisoundFX4_FastConv_ImplD2Ev _ZTVN9MisoundFX24MisoundFX4_FastConv_ImplE kiss_fftr kiss_fftr_alloc kiss_fftri _ZN9MisoundFX20MisoundFX4_Gain_Impl12setParameterEif _ZN9MisoundFX20MisoundFX4_Gain_Impl5resetEv _ZN9MisoundFX20MisoundFX4_Gain_Impl7processEPfi _ZN9MisoundFX20MisoundFX4_Gain_Impl8getParamEi _ZN9MisoundFX20MisoundFX4_Gain_ImplC1Ef _ZN9MisoundFX20MisoundFX4_Gain_ImplC2Ef _ZN9MisoundFX20MisoundFX4_Gain_ImplD0Ev _ZN9MisoundFX20MisoundFX4_Gain_ImplD1Ev _ZN9MisoundFX20MisoundFX4_Gain_ImplD2Ev _ZTVN9MisoundFX20MisoundFX4_Gain_ImplE _ZN9MisoundFX22MisoundFX4_IirSos_Impl12setParameterEif _ZN9MisoundFX22MisoundFX4_IirSos_Impl5resetEv _ZN9MisoundFX22MisoundFX4_IirSos_Impl7processEPfi _ZN9MisoundFX22MisoundFX4_IirSos_Impl8setCoeffEPf _ZN9MisoundFX22MisoundFX4_IirSos_Impl9setNumSosEi _ZN9MisoundFX22MisoundFX4_IirSos_Impl9setScalesEPf _ZN9MisoundFX22MisoundFX4_IirSos_ImplC1Eiif _ZN9MisoundFX22MisoundFX4_IirSos_ImplC2Eiif _ZN9MisoundFX22MisoundFX4_IirSos_ImplD0Ev _ZN9MisoundFX22MisoundFX4_IirSos_ImplD1Ev _ZN9MisoundFX22MisoundFX4_IirSos_ImplD2Ev _ZTVN9MisoundFX22MisoundFX4_IirSos_ImplE _ZN9MisoundFX21MisoundFX4_LRMix_Impl12setParameterEif _ZN9MisoundFX21MisoundFX4_LRMix_Impl5resetEv _ZN9MisoundFX21MisoundFX4_LRMix_Impl7processEPfS1_i _ZN9MisoundFX21MisoundFX4_LRMix_Impl7processEPfi _ZN9MisoundFX21MisoundFX4_LRMix_ImplC1Ef _ZN9MisoundFX21MisoundFX4_LRMix_ImplC2Ef _ZN9MisoundFX21MisoundFX4_LRMix_ImplD0Ev _ZN9MisoundFX21MisoundFX4_LRMix_ImplD1Ev _ZN9MisoundFX21MisoundFX4_LRMix_ImplD2Ev _ZTVN9MisoundFX21MisoundFX4_LRMix_ImplE _ZN9MisoundFX22MisoundFX4_LRSwap_Impl12setParameterEif _ZN9MisoundFX22MisoundFX4_LRSwap_Impl5resetEv _ZN9MisoundFX22MisoundFX4_LRSwap_Impl7processEPfS1_i _ZN9MisoundFX22MisoundFX4_LRSwap_Impl7processEPfi _ZN9MisoundFX22MisoundFX4_LRSwap_ImplC1Ef _ZN9MisoundFX22MisoundFX4_LRSwap_ImplC2Ef _ZN9MisoundFX22MisoundFX4_LRSwap_ImplD0Ev _ZN9MisoundFX22MisoundFX4_LRSwap_ImplD1Ev _ZN9MisoundFX22MisoundFX4_LRSwap_ImplD2Ev _ZTVN9MisoundFX22MisoundFX4_LRSwap_ImplE _ZN9MisoundFX23MisoundFX4_Limiter_Impl12setParameterEif _ZN9MisoundFX23MisoundFX4_Limiter_Impl5resetEv _ZN9MisoundFX23MisoundFX4_Limiter_Impl7processEPfi _ZN9MisoundFX23MisoundFX4_Limiter_ImplC1Ef _ZN9MisoundFX23MisoundFX4_Limiter_ImplC2Ef _ZN9MisoundFX23MisoundFX4_Limiter_ImplD0Ev _ZN9MisoundFX23MisoundFX4_Limiter_ImplD1Ev _ZN9MisoundFX23MisoundFX4_Limiter_ImplD2Ev _ZTVN9MisoundFX23MisoundFX4_Limiter_ImplE _ZN9MisoundFX28MisoundFX4_MBCompressor_Impl12setParameterEif _ZN9MisoundFX28MisoundFX4_MBCompressor_Impl12setParameterEiif _ZN9MisoundFX28MisoundFX4_MBCompressor_Impl17setCrossOverFreqsEif _ZN9MisoundFX28MisoundFX4_MBCompressor_Impl5resetEv _ZN9MisoundFX28MisoundFX4_MBCompressor_Impl7processEPfi _ZN9MisoundFX28MisoundFX4_MBCompressor_ImplC1Eif _ZN9MisoundFX28MisoundFX4_MBCompressor_ImplC2Eif _ZN9MisoundFX28MisoundFX4_MBCompressor_ImplD0Ev _ZN9MisoundFX28MisoundFX4_MBCompressor_ImplD1Ev _ZN9MisoundFX28MisoundFX4_MBCompressor_ImplD2Ev _ZTVN9MisoundFX28MisoundFX4_MBCompressor_ImplE _ZN9MisoundFX26MisoundFX4_MBExpander_Impl12setParameterEif _ZN9MisoundFX26MisoundFX4_MBExpander_Impl12setParameterEiif _ZN9MisoundFX26MisoundFX4_MBExpander_Impl17setCrossOverFreqsEif _ZN9MisoundFX26MisoundFX4_MBExpander_Impl5resetEv _ZN9MisoundFX26MisoundFX4_MBExpander_Impl7processEPfi _ZN9MisoundFX26MisoundFX4_MBExpander_ImplC1Eif _ZN9MisoundFX26MisoundFX4_MBExpander_ImplC2Eif _ZN9MisoundFX26MisoundFX4_MBExpander_ImplD0Ev _ZN9MisoundFX26MisoundFX4_MBExpander_ImplD1Ev _ZN9MisoundFX26MisoundFX4_MBExpander_ImplD2Ev _ZTVN9MisoundFX26MisoundFX4_MBExpander_ImplE _ZN9MisoundFX19MisoundFX4_PBE_Impl12setParameterEif _ZN9MisoundFX19MisoundFX4_PBE_Impl5resetEv _ZN9MisoundFX19MisoundFX4_PBE_Impl7processEPfi _ZN9MisoundFX19MisoundFX4_PBE_ImplC1Ef _ZN9MisoundFX19MisoundFX4_PBE_ImplC2Ef _ZN9MisoundFX19MisoundFX4_PBE_ImplD0Ev _ZN9MisoundFX19MisoundFX4_PBE_ImplD1Ev _ZN9MisoundFX19MisoundFX4_PBE_ImplD2Ev _ZTVN9MisoundFX19MisoundFX4_PBE_ImplE _ZN9MisoundFX25MisoundFX4_Processor_Impl12setParameterEif _ZN9MisoundFX25MisoundFX4_Processor_Impl5resetEv _ZN9MisoundFX25MisoundFX4_Processor_ImplD0Ev _ZN9MisoundFX25MisoundFX4_Processor_ImplD1Ev _ZTVN9MisoundFX25MisoundFX4_Processor_ImplE __cxa_pure_virtual _ZN9MisoundFX29MisoundFX4_VoiceEnhancer_Impl12setParameterEif _ZN9MisoundFX29MisoundFX4_VoiceEnhancer_Impl5resetEv _ZN9MisoundFX29MisoundFX4_VoiceEnhancer_Impl7processEPfi _ZN9MisoundFX29MisoundFX4_VoiceEnhancer_ImplC1Ef _ZN9MisoundFX29MisoundFX4_VoiceEnhancer_ImplC2Ef _ZN9MisoundFX29MisoundFX4_VoiceEnhancer_ImplD0Ev _ZN9MisoundFX29MisoundFX4_VoiceEnhancer_ImplD1Ev _ZN9MisoundFX29MisoundFX4_VoiceEnhancer_ImplD2Ev _ZTVN9MisoundFX29MisoundFX4_VoiceEnhancer_ImplE _ZN9MisoundFX19MisoundFX4_FastConvC1EPfiif _ZN9MisoundFX19MisoundFX4_XTC_Impl12setParameterEif _ZN9MisoundFX19MisoundFX4_XTC_Impl28MisoundFX4_XTC_Default_ParamE _ZN9MisoundFX19MisoundFX4_XTC_Impl5resetEv _ZN9MisoundFX19MisoundFX4_XTC_Impl7processEPfS1_i _ZN9MisoundFX19MisoundFX4_XTC_Impl7processEPfi _ZN9MisoundFX19MisoundFX4_XTC_Impl7setModeEi _ZN9MisoundFX19MisoundFX4_XTC_Impl9firFilterEPfS1_S1_iS1_i _ZN9MisoundFX19MisoundFX4_XTC_ImplC1Ef _ZN9MisoundFX19MisoundFX4_XTC_ImplC2Ef _ZN9MisoundFX19MisoundFX4_XTC_ImplD0Ev _ZN9MisoundFX19MisoundFX4_XTC_ImplD1Ev _ZN9MisoundFX19MisoundFX4_XTC_ImplD2Ev _ZTVN9MisoundFX19MisoundFX4_XTC_ImplE _ZN9MisoundFX17MisoundFX4_Biquad12setParameterEiif _ZN9MisoundFX17MisoundFX4_Biquad5resetEv _ZN9MisoundFX17MisoundFX4_Biquad7processEPPfii _ZN9MisoundFX17MisoundFX4_BiquadC1Eif _ZN9MisoundFX17MisoundFX4_BiquadC2Eif _ZN9MisoundFX17MisoundFX4_BiquadD0Ev _ZN9MisoundFX17MisoundFX4_BiquadD1Ev _ZN9MisoundFX17MisoundFX4_BiquadD2Ev _ZN9MisoundFX20MisoundFX4_Processor9setEnableEi _ZN9MisoundFX20MisoundFX4_ProcessorC2Eifi _ZN9MisoundFX20MisoundFX4_ProcessorD2Ev _ZNK9MisoundFX20MisoundFX4_Processor14getNumChannelsEv _ZTVN9MisoundFX17MisoundFX4_BiquadE _ZN9MisoundFX21MisoundFX4_Compressor12setParameterEiif _ZN9MisoundFX21MisoundFX4_Compressor5resetEv _ZN9MisoundFX21MisoundFX4_Compressor7processEPPfii _ZN9MisoundFX21MisoundFX4_CompressorC1Eif _ZN9MisoundFX21MisoundFX4_CompressorC2Eif _ZN9MisoundFX21MisoundFX4_CompressorD0Ev _ZN9MisoundFX21MisoundFX4_CompressorD1Ev _ZN9MisoundFX21MisoundFX4_CompressorD2Ev _ZTVN9MisoundFX21MisoundFX4_CompressorE _ZN9MisoundFX20MisoundFX4_Crossfade12setParameterEiif _ZN9MisoundFX20MisoundFX4_Crossfade17getCrossfadeStateEv _ZN9MisoundFX20MisoundFX4_Crossfade19setFadeInSignalPathEPNS_21MisoundFX4_SignalPathE _ZN9MisoundFX20MisoundFX4_Crossfade20setFadeOutSignalPathEPNS_21MisoundFX4_SignalPathE _ZN9MisoundFX20MisoundFX4_Crossfade5resetEv _ZN9MisoundFX20MisoundFX4_Crossfade7processEPPfS2_ii _ZN9MisoundFX20MisoundFX4_Crossfade7processEPPfii _ZN9MisoundFX20MisoundFX4_CrossfadeC1Eif _ZN9MisoundFX20MisoundFX4_CrossfadeC2Eif _ZN9MisoundFX20MisoundFX4_CrossfadeD0Ev _ZN9MisoundFX20MisoundFX4_CrossfadeD1Ev _ZN9MisoundFX20MisoundFX4_CrossfadeD2Ev _ZTVN9MisoundFX20MisoundFX4_CrossfadeE _ZN9MisoundFX14MisoundFX4_DEQ12setParameterEiif _ZN9MisoundFX14MisoundFX4_DEQ5resetEv _ZN9MisoundFX14MisoundFX4_DEQ7processEPPfii _ZN9MisoundFX14MisoundFX4_DEQC1Eif _ZN9MisoundFX14MisoundFX4_DEQC2Eif _ZN9MisoundFX14MisoundFX4_DEQD0Ev _ZN9MisoundFX14MisoundFX4_DEQD1Ev _ZN9MisoundFX14MisoundFX4_DEQD2Ev _ZTVN9MisoundFX14MisoundFX4_DEQE _ZN9MisoundFX19MisoundFX4_Doubler212setParameterEiif _ZN9MisoundFX19MisoundFX4_Doubler25resetEv _ZN9MisoundFX19MisoundFX4_Doubler27processEPPfii _ZN9MisoundFX19MisoundFX4_Doubler2C1Eif _ZN9MisoundFX19MisoundFX4_Doubler2C2Eif _ZN9MisoundFX19MisoundFX4_Doubler2D0Ev _ZN9MisoundFX19MisoundFX4_Doubler2D1Ev _ZN9MisoundFX19MisoundFX4_Doubler2D2Ev _ZTVN9MisoundFX19MisoundFX4_Doubler2E _ZN9MisoundFX13MisoundFX4_EQ11setBandGainEfii _ZN9MisoundFX13MisoundFX4_EQ12setParameterEiif _ZN9MisoundFX13MisoundFX4_EQ5resetEv _ZN9MisoundFX13MisoundFX4_EQ7processEPPfii _ZN9MisoundFX13MisoundFX4_EQC1Eif _ZN9MisoundFX13MisoundFX4_EQC2Eif _ZN9MisoundFX13MisoundFX4_EQD0Ev _ZN9MisoundFX13MisoundFX4_EQD1Ev _ZN9MisoundFX13MisoundFX4_EQD2Ev _ZTVN9MisoundFX13MisoundFX4_EQE _ZN9MisoundFX20MisoundFX4_EarCompen12setParameterEiif _ZN9MisoundFX20MisoundFX4_EarCompen5resetEv _ZN9MisoundFX20MisoundFX4_EarCompen7processEPPfii _ZN9MisoundFX20MisoundFX4_EarCompen7setGainEPji _ZN9MisoundFX20MisoundFX4_EarCompenC1Eif _ZN9MisoundFX20MisoundFX4_EarCompenC2Eif _ZN9MisoundFX20MisoundFX4_EarCompenD0Ev _ZN9MisoundFX20MisoundFX4_EarCompenD1Ev _ZN9MisoundFX20MisoundFX4_EarCompenD2Ev _ZTVN9MisoundFX20MisoundFX4_EarCompenE _ZN9MisoundFX19MisoundFX4_Expander12setParameterEiif _ZN9MisoundFX19MisoundFX4_Expander5resetEv _ZN9MisoundFX19MisoundFX4_Expander7processEPPfii _ZN9MisoundFX19MisoundFX4_ExpanderC1Eif _ZN9MisoundFX19MisoundFX4_ExpanderC2Eif _ZN9MisoundFX19MisoundFX4_ExpanderD0Ev _ZN9MisoundFX19MisoundFX4_ExpanderD1Ev _ZN9MisoundFX19MisoundFX4_ExpanderD2Ev _ZTVN9MisoundFX19MisoundFX4_ExpanderE _ZN9MisoundFX15MisoundFX4_Fade10isFadeIdleEv _ZN9MisoundFX15MisoundFX4_Fade12setParameterEiif _ZN9MisoundFX15MisoundFX4_Fade13isFadeOutDoneEv _ZN9MisoundFX15MisoundFX4_Fade5resetEv _ZN9MisoundFX15MisoundFX4_Fade7processEPPfii _ZN9MisoundFX15MisoundFX4_Fade8getStateEv _ZN9MisoundFX15MisoundFX4_FadeC1Eif _ZN9MisoundFX15MisoundFX4_FadeC2Eif _ZN9MisoundFX15MisoundFX4_FadeD0Ev _ZN9MisoundFX15MisoundFX4_FadeD1Ev _ZN9MisoundFX15MisoundFX4_FadeD2Ev _ZTVN9MisoundFX15MisoundFX4_FadeE _ZN9MisoundFX19MisoundFX4_FastConv12setParameterEiif _ZN9MisoundFX19MisoundFX4_FastConv5resetEv _ZN9MisoundFX19MisoundFX4_FastConv7processEPPfii _ZN9MisoundFX19MisoundFX4_FastConvC2EPfiif _ZN9MisoundFX19MisoundFX4_FastConvD0Ev _ZN9MisoundFX19MisoundFX4_FastConvD1Ev _ZN9MisoundFX19MisoundFX4_FastConvD2Ev _ZTVN9MisoundFX19MisoundFX4_FastConvE _ZN9MisoundFX15MisoundFX4_Gain12setParameterEiif _ZN9MisoundFX15MisoundFX4_Gain5resetEv _ZN9MisoundFX15MisoundFX4_Gain7processEPPfii _ZN9MisoundFX15MisoundFX4_Gain8getParamEi _ZN9MisoundFX15MisoundFX4_GainC1Eif _ZN9MisoundFX15MisoundFX4_GainC2Eif _ZN9MisoundFX15MisoundFX4_GainD0Ev _ZN9MisoundFX15MisoundFX4_GainD1Ev _ZN9MisoundFX15MisoundFX4_GainD2Ev _ZTVN9MisoundFX15MisoundFX4_GainE _ZN9MisoundFX17MisoundFX4_IirSos12setParameterEiif _ZN9MisoundFX17MisoundFX4_IirSos5resetEv _ZN9MisoundFX17MisoundFX4_IirSos7processEPPfii _ZN9MisoundFX17MisoundFX4_IirSos8setCoeffEiPf _ZN9MisoundFX17MisoundFX4_IirSos9setNumSosEii _ZN9MisoundFX17MisoundFX4_IirSos9setScalesEiPf _ZN9MisoundFX17MisoundFX4_IirSosC1Eiiif _ZN9MisoundFX17MisoundFX4_IirSosC2Eiiif _ZN9MisoundFX17MisoundFX4_IirSosD0Ev _ZN9MisoundFX17MisoundFX4_IirSosD1Ev _ZN9MisoundFX17MisoundFX4_IirSosD2Ev _ZTVN9MisoundFX17MisoundFX4_IirSosE _ZN9MisoundFX16MisoundFX4_LRMix12setParameterEiif _ZN9MisoundFX16MisoundFX4_LRMix5resetEv _ZN9MisoundFX16MisoundFX4_LRMix7processEPPfii _ZN9MisoundFX16MisoundFX4_LRMixC1Eif _ZN9MisoundFX16MisoundFX4_LRMixC2Eif _ZN9MisoundFX16MisoundFX4_LRMixD0Ev _ZN9MisoundFX16MisoundFX4_LRMixD1Ev _ZN9MisoundFX16MisoundFX4_LRMixD2Ev _ZTVN9MisoundFX16MisoundFX4_LRMixE _ZN9MisoundFX17MisoundFX4_LRSwap12setParameterEiif _ZN9MisoundFX17MisoundFX4_LRSwap5resetEv _ZN9MisoundFX17MisoundFX4_LRSwap7processEPPfii _ZN9MisoundFX17MisoundFX4_LRSwapC1Eif _ZN9MisoundFX17MisoundFX4_LRSwapC2Eif _ZN9MisoundFX17MisoundFX4_LRSwapD0Ev _ZN9MisoundFX17MisoundFX4_LRSwapD1Ev _ZN9MisoundFX17MisoundFX4_LRSwapD2Ev _ZTVN9MisoundFX17MisoundFX4_LRSwapE _ZN9MisoundFX18MisoundFX4_Limiter12setParameterEiif _ZN9MisoundFX18MisoundFX4_Limiter5resetEv _ZN9MisoundFX18MisoundFX4_Limiter7processEPPfii _ZN9MisoundFX18MisoundFX4_LimiterC1Eif _ZN9MisoundFX18MisoundFX4_LimiterC2Eif _ZN9MisoundFX18MisoundFX4_LimiterD0Ev _ZN9MisoundFX18MisoundFX4_LimiterD1Ev _ZN9MisoundFX18MisoundFX4_LimiterD2Ev _ZTVN9MisoundFX18MisoundFX4_LimiterE _ZN9MisoundFX23MisoundFX4_MBCompressor12setParameterEiif _ZN9MisoundFX23MisoundFX4_MBCompressor12setParameterEiiif _ZN9MisoundFX23MisoundFX4_MBCompressor5resetEv _ZN9MisoundFX23MisoundFX4_MBCompressor7processEPPfii _ZN9MisoundFX23MisoundFX4_MBCompressorC1Eiif _ZN9MisoundFX23MisoundFX4_MBCompressorC2Eiif _ZN9MisoundFX23MisoundFX4_MBCompressorD0Ev _ZN9MisoundFX23MisoundFX4_MBCompressorD1Ev _ZN9MisoundFX23MisoundFX4_MBCompressorD2Ev _ZTVN9MisoundFX23MisoundFX4_MBCompressorE _ZN9MisoundFX21MisoundFX4_MBExpander12setParameterEiif _ZN9MisoundFX21MisoundFX4_MBExpander12setParameterEiiif _ZN9MisoundFX21MisoundFX4_MBExpander5resetEv _ZN9MisoundFX21MisoundFX4_MBExpander7processEPPfii _ZN9MisoundFX21MisoundFX4_MBExpanderC1Eiif _ZN9MisoundFX21MisoundFX4_MBExpanderC2Eiif _ZN9MisoundFX21MisoundFX4_MBExpanderD0Ev _ZN9MisoundFX21MisoundFX4_MBExpanderD1Ev _ZN9MisoundFX21MisoundFX4_MBExpanderD2Ev _ZTVN9MisoundFX21MisoundFX4_MBExpanderE _ZN9MisoundFX14MisoundFX4_PBE12setParameterEiif _ZN9MisoundFX14MisoundFX4_PBE5resetEv _ZN9MisoundFX14MisoundFX4_PBE7processEPPfii _ZN9MisoundFX14MisoundFX4_PBEC1Eif _ZN9MisoundFX14MisoundFX4_PBEC2Eif _ZN9MisoundFX14MisoundFX4_PBED0Ev _ZN9MisoundFX14MisoundFX4_PBED1Ev _ZN9MisoundFX14MisoundFX4_PBED2Ev _ZTVN9MisoundFX14MisoundFX4_PBEE _ZN9MisoundFX20MisoundFX4_Processor12setParameterEiif _ZN9MisoundFX20MisoundFX4_Processor5resetEv _ZN9MisoundFX20MisoundFX4_Processor7processEPPfii _ZN9MisoundFX20MisoundFX4_ProcessorC1Eifi _ZN9MisoundFX20MisoundFX4_ProcessorD0Ev _ZN9MisoundFX20MisoundFX4_ProcessorD1Ev _ZTVN9MisoundFX20MisoundFX4_ProcessorE _ZN9MisoundFX24MisoundFX4_VoiceEnhancer12setParameterEiif _ZN9MisoundFX24MisoundFX4_VoiceEnhancer5resetEv _ZN9MisoundFX24MisoundFX4_VoiceEnhancer7processEPPfii _ZN9MisoundFX24MisoundFX4_VoiceEnhancerC1Eif _ZN9MisoundFX24MisoundFX4_VoiceEnhancerC2Eif _ZN9MisoundFX24MisoundFX4_VoiceEnhancerD0Ev _ZN9MisoundFX24MisoundFX4_VoiceEnhancerD1Ev _ZN9MisoundFX24MisoundFX4_VoiceEnhancerD2Ev _ZTVN9MisoundFX24MisoundFX4_VoiceEnhancerE _ZN9MisoundFX14MisoundFX4_XTC12setParameterEiif _ZN9MisoundFX14MisoundFX4_XTC5resetEv _ZN9MisoundFX14MisoundFX4_XTC7processEPPfii _ZN9MisoundFX14MisoundFX4_XTC7setModeEi _ZN9MisoundFX14MisoundFX4_XTCC1Eif _ZN9MisoundFX14MisoundFX4_XTCC2Eif _ZN9MisoundFX14MisoundFX4_XTCD0Ev _ZN9MisoundFX14MisoundFX4_XTCD1Ev _ZN9MisoundFX14MisoundFX4_XTCD2Ev _ZTVN9MisoundFX14MisoundFX4_XTCE _ZN9MisoundFX10MisoundFX413addSignalPathEPNS_21MisoundFX4_SignalPathEi _ZN9MisoundFX10MisoundFX414setSystemSoundEi _ZN9MisoundFX10MisoundFX417createSignalPathsEi _ZN9MisoundFX10MisoundFX417deleteSignalPathsEv _ZN9MisoundFX10MisoundFX418updateEqGainsForCEEv _ZN9MisoundFX10MisoundFX419getOwnedSignalPathsEv _ZN9MisoundFX10MisoundFX419getSignalPathByNameEPc _ZN9MisoundFX10MisoundFX421initializeSignalPathsEPc _ZN9MisoundFX10MisoundFX421isAnyProcessorRunningEv _ZN9MisoundFX10MisoundFX421setFadeProcessorStateEi _ZN9MisoundFX10MisoundFX422addSignalPathToRunningEiPc _ZN9MisoundFX10MisoundFX422fxParamChangeNeedsFadeEif _ZN9MisoundFX10MisoundFX422handleVolumeStepChangeEii _ZN9MisoundFX10MisoundFX423getFirstProcessorOfTypeEi _ZN9MisoundFX10MisoundFX423initializeDefaultParamsEv _ZN9MisoundFX10MisoundFX428handleFadeAndProcessorStatusEv _ZN9MisoundFX10MisoundFX433changeRunningSignalPathByModeTypeEi _ZN9MisoundFX10MisoundFX47processEPPfS2_ii _ZN9MisoundFX10MisoundFX49getParamsEiPj _ZN9MisoundFX10MisoundFX4C2EfiPc _ZN9MisoundFX10MisoundFX4D0Ev _ZN9MisoundFX10MisoundFX4D1Ev _ZN9MisoundFX10MisoundFX4D2Ev _ZN9MisoundFX21MisoundFX4_SignalPath21isAnyProcessorRunningEv _ZN9MisoundFX21MisoundFX4_SignalPath23getFirstProcessorOfTypeEi _ZN9MisoundFX21MisoundFX4_SignalPath7getNameEv _ZN9MisoundFX21MisoundFX4_SignalPath7processEPPfii _ZN9MisoundFX24MisoundFX4_ResFileReader14getResFileNameEv _ZN9MisoundFX24MisoundFX4_ResFileReader19loadResFileToMemoryEPcPS0_ _ZN9MisoundFX24MisoundFX4_ResFileReader21getFileReferenceCountEi _ZN9MisoundFX24MisoundFX4_ResFileReaderC1Ev _ZN9MisoundFX24MisoundFX4_ResFileReaderD1Ev _ZN9MisoundFX28MisoundFX4_SignalPathFactory29setIirSosModelParameterHelperEPNS_10MisoundFX4ERNS_24MisoundFX4_ResFileReaderEPNS_17MisoundFX4_IirSosEii _ZN9MisoundFX28MisoundFX4_SignalPathFactory30createSignalPathFromResFileMemEPNS_10MisoundFX4ERNS_24MisoundFX4_ResFileReaderE _ZNSt11logic_errorC2EPKc _ZNSt12length_errorD1Ev _ZNSt3__112__deque_baseIiNS_9allocatorIiEEE5clearEv _ZNSt3__112__deque_baseIiNS_9allocatorIiEEED2Ev _ZNSt3__114__split_bufferIPiNS_9allocatorIS1_EEE10push_frontEOS1_ _ZNSt3__114__split_bufferIPiNS_9allocatorIS1_EEE13shrink_to_fitEv _ZNSt3__114__split_bufferIPiNS_9allocatorIS1_EEE9push_backEOS1_ _ZNSt3__114__split_bufferIPiNS_9allocatorIS1_EEED2Ev _ZNSt3__114__split_bufferIPiNS_9allocatorIS1_EEEaSEOS4_ _ZNSt3__114__split_bufferIPiRNS_9allocatorIS1_EEE10push_frontERKS1_ _ZNSt3__114__split_bufferIPiRNS_9allocatorIS1_EEE9push_backEOS1_ _ZNSt3__127__tree_balance_after_insertIPNS_16__tree_node_baseIPvEEEEvT_S5_ _ZNSt3__15dequeIiNS_9allocatorIiEEE13__move_assignERS3_NS_17integral_constantIbLb1EEE _ZNSt3__15dequeIiNS_9allocatorIiEEE13shrink_to_fitEv _ZNSt3__15dequeIiNS_9allocatorIiEEE19__add_back_capacityEv _ZNSt3__15dequeIiNS_9allocatorIiEEE9pop_frontEv _ZNSt3__15dequeIiNS_9allocatorIiEEE9push_backERKi _ZNSt3__16__treeINS_12__value_typeIijEENS_19__map_value_compareIiS2_NS_4lessIiEELb1EEENS_9allocatorIS2_EEE16__insert_node_atEPNS_15__tree_end_nodeIPNS_16__tree_node_baseIPvEEEERSE_SE_ _ZNSt3__16__treeINS_12__value_typeIijEENS_19__map_value_compareIiS2_NS_4lessIiEELb1EEENS_9allocatorIS2_EEE25__emplace_unique_key_argsIiJNS_4pairIiiEEEEENSB_INS_15__tree_iteratorIS2_PNS_11__tree_nodeIS2_PvEEiEEbEERKT_DpOT0_ _ZNSt3__16__treeINS_12__value_typeIijEENS_19__map_value_compareIiS2_NS_4lessIiEELb1EEENS_9allocatorIS2_EEE25__emplace_unique_key_argsIiJRKNS_21piecewise_construct_tENS_5tupleIJOiEEENSE_IJEEEEEENS_4pairINS_15__tree_iteratorIS2_PNS_11__tree_nodeIS2_PvEEiEEbEERKT_DpOT0_ _ZNSt3__16__treeINS_12__value_typeIijEENS_19__map_value_compareIiS2_NS_4lessIiEELb1EEENS_9allocatorIS2_EEE25__emplace_unique_key_argsIiJRKNS_21piecewise_construct_tENS_5tupleIJRKiEEENSE_IJEEEEEENS_4pairINS_15__tree_iteratorIS2_PNS_11__tree_nodeIS2_PvEEiEEbEERKT_DpOT0_ _ZNSt3__16__treeINS_12__value_typeIijEENS_19__map_value_compareIiS2_NS_4lessIiEELb1EEENS_9allocatorIS2_EEE7destroyEPNS_11__tree_nodeIS2_PvEE _ZTISt12length_error _ZTSSt12length_error _ZTVN9MisoundFX10MisoundFX4E _ZTVSt12length_error __cxa_allocate_exception __cxa_free_exception __cxa_throw strstr _ZN9MisoundFX24MisoundFX4_ResFileHolder12isFileLoadedEPc _ZN9MisoundFX24MisoundFX4_ResFileHolder14sharedResFilesE _ZN9MisoundFX24MisoundFX4_ResFileReader11readFileMemEPvjj _ZN9MisoundFX24MisoundFX4_ResFileReader11seekFileMemEji _ZN9MisoundFX24MisoundFX4_ResFileReader13readChunkHeadEPc _ZN9MisoundFX24MisoundFX4_ResFileReader14isFileMemReadyEv _ZN9MisoundFX24MisoundFX4_ResFileReader14tellFileMemPosEv _ZN9MisoundFX24MisoundFX4_ResFileReader23initializeResFileStructEi _ZN9MisoundFX24MisoundFX4_ResFileReader9closeFileEv _ZN9MisoundFX24MisoundFX4_ResFileReaderC2Ev _ZN9MisoundFX24MisoundFX4_ResFileReaderD2Ev strcpy _ZN9MisoundFX21MisoundFX4_SignalPath12addProcessorEPNS_20MisoundFX4_ProcessorE _ZN9MisoundFX21MisoundFX4_SignalPath16getLastProcessorEv _ZN9MisoundFX21MisoundFX4_SignalPathC1EPc _ZN9MisoundFX21MisoundFX4_SignalPathC2EPc _ZN9MisoundFX21MisoundFX4_SignalPathD0Ev _ZN9MisoundFX21MisoundFX4_SignalPathD1Ev _ZN9MisoundFX21MisoundFX4_SignalPathD2Ev _ZTVN9MisoundFX21MisoundFX4_SignalPathE __strcpy_chk _ZN9MisoundFX28MisoundFX4_SignalPathFactory17isLegalModuleNameEPc _ZN9MisoundFX28MisoundFX4_SignalPathFactory18loadHeaderMetaInfoEPNS_10MisoundFX4ERNS_24MisoundFX4_ResFileReaderE _ZN9MisoundFX28MisoundFX4_SignalPathFactory18setModuleParameterEPNS_10MisoundFX4EPNS_21MisoundFX4_SignalPathEPciifRNS_24MisoundFX4_ResFileReaderE _ZN9MisoundFX28MisoundFX4_SignalPathFactory19iirSosReadSosHelperERNS_24MisoundFX4_ResFileReaderERNS0_27MisoundFX4_IirSosReadHelperEii _ZN9MisoundFX28MisoundFX4_SignalPathFactory24loadAndCreateSignalPathsEPNS_10MisoundFX4ERNS_24MisoundFX4_ResFileReaderE _ZN9MisoundFX28MisoundFX4_SignalPathFactory25createModuleForSignalPathEPNS_10MisoundFX4EPNS_21MisoundFX4_SignalPathEPcRNS_24MisoundFX4_ResFileReaderE _ZN9MisoundFX28MisoundFX4_SignalPathFactory26loadParameterForSignalPathEPNS_10MisoundFX4EPNS_21MisoundFX4_SignalPathERNS_24MisoundFX4_ResFileReaderE _ZN9MisoundFX28MisoundFX4_SignalPathFactory27iirSosReadingSkipModelChunkERNS_24MisoundFX4_ResFileReaderE _ZN9MisoundFX28MisoundFX4_SignalPathFactory29iirSosCreateAndSetParamHelperEPNS_10MisoundFX4ERNS_24MisoundFX4_ResFileReaderEiiiPNS_17MisoundFX4_IirSosE cos exit fwrite kiss_fft kiss_fft_alloc sin stderr kiss_fft_cleanup kiss_fft_next_fast_size kiss_fft_stride __sF abort fflush fprintf dl_iterate_phdr dladdr __aeabi_memcpy4 __aeabi_memcpy8 memcpy __aeabi_memmove4 __aeabi_memmove8 memmove __aeabi_memclr4 __aeabi_memset __aeabi_memset4 __aeabi_memset8 memset <br/>%s(), product_info %s, parsing file %s Version 4.0.3.0, Data: 2020-07-14 input dev: 0x%x, fmt = 0x%x, fs: %u, max fs: %u, ch: %d, max ch: %d do nothing for data type %d output device: 0x%x =&gt; 0x%x misound_arsi_get_key_value_pair s0 s30 d5 d8 ul out, ch: %d, buf fs: %u, read data fs: %u, fmt: 0x%x misound_arsi_get_addr_value %s(), key value pair = %s %s(), misound spk xtc type: %d EarCompenLeftChannel =off s6 s12 s18 HeadphoneMode EarCompenEnable HPMD s29 misound_arsi_create_handler misoundfx create handler end. %s %d misound_arsi_update_device misound_arsi_update_param %s(), misound select headphone: %d SpkMode %s(), misound headphone voice enhance type: %d # EarCompenRightChannel PMM0 unwind_phase2 r2 r11 s26 d11 d25 misoundfx load param file opened ul in, ch: %d, buf fs: %u, read data fs: %u, fmt: 0x%x misound set earcompen agemode: %d dl_digital_gain = %d DBL0 LRSW getFloatRegister s24 s25 d3 misoundfx parse param end %s %d misound4_arsi_destroy_handler %s EarCompenAgeMode MODU setFloatRegister %s index inlined table detected but pr function requires extra words r0 r5 r6 s4 s10 s19 d13 misound_res.bin output dev: 0x%x, fmt = 0x%x, fs: %u, max fs: %u, ch: %d, max ch: %d misound_arsi_destroy_handler MusicMode XtcMode SPMD unsupported arm register s1 s21 d6 d16 dl in, ch: %d, buf fs: %u, read data fs: %u, fmt: 0x%x misound_arsi_set_addr_value WA_Limit_Restore PBE0 s22 misound4_arsi_create_handler entry. misound4_arsi_create_handler stream_type : %d %s(), value 0x%x at addr 0x%x allocator&lt;T&gt;::allocate(size_t n) 'n' exceeds maximum supported size END0 libunwind: %s %s:%d - %s r8 %s(), get param buf size %u for enh mode %s from file %s %s(), misound spk voice enhance type: %d lr s13 s16 d7 Cannot allocate %d for private buffer %s(), alloc private buf %p with %d bytes to load all parameters during phase1 personality function said it would stop here, but now in phase2 it did not stop here d0 d10 d30 d31 rb UL processed: type = %d, ch: %d, ch mask: 0x%x, fs for pcm: %u, fs for content: %u, fmt = 0x%x %s(), p_handler = %p MBE0 setRegister r3 lib, working fs: %u, fmt: 0x%x, frame = %d, b_interleave = %d p_debug_dump_buf-&gt;memory_size = 0x%x misound_arsi_process_dl_buf misoundfx process dl buf bypass == 1 %s %d misound set earcompen enable: %d %s(), get key value pair = %s ENDM r1 r9 d29 %s(), parsing file %s, custom_info = %s, private buf %p misound4_arsi_update_device %s HAHA ENDP kiss fft usage error: improper alloc getInfoFromEHABISection s2 s20 d20 %s(), create lib misound4_fx_lib dsp date: %d.%d.%d data type %d SBC0 XTC0 SREV _Unwind_VRS_Pop d9 misoundfx load param end %s %d misound_arsi_reset_handler MAXS _Unwind_VRS_Set pc misound_arsi_load_param The file %s read error, result=%d, bin_size=%d misound_arsi_query_working_buf_size misound4_fx_lib resfile reference %lu input fs for pcm: %u -&gt; %u, fs for content: %u -&gt; %d b_mute_on = %d headphone.bin VEM0 external/libunwind_llvm/src/Registers.hpp r12 s9 s23 s31 = PAN3 s11 d14 d19 %s(), misound mode type: %d EQEnable external/libunwind_llvm/src/Unwind-EHABI.cpp r7 r10 d23 misound_arsi_parsing_param_file_by_custom_info misound LRCrossFade setparam: %u MMH0 DEQ0 ECS0 PITC d4 d17 %s/%s call_band_type: %d, call_net_type: %d output fs for pcm: %u -&gt; %u, fs for content: %u -&gt; %d %s(), set value 0x%x at addr 0x%x %s(), misound select spk set system sound: %d =on _Unwind_Resume() can't return misound4_fx_lib dsp lib version: %d.%d.%d %s(), misound headphone doubler type: %d s7 d22 The file %s was not opened SpkVoiceEnhance LRCrossFade LRMX _Unwind_Resume d2 d12 misound_arsi_set_key_value_pair %s(), misound select spk mode type: %d HRIR EMOD MMS0 misound_arsi_query_param_buf_size_by_custom_info HeadphoneIndex SystemSound ENDS NUMM AMP0 %s(), working_buf_size = %lu misound4_spk_init done. UL raw: type = %d, ch: %d, ch mask: 0x%x, fs for pcm: %u, fs for content: %u, fmt = 0x%x DL processed: type = %d, ch: %d, ch mask: 0x%x, fs for pcm: %u, fs for content: %u, fmt = 0x%x MovieMode MBC0 ENDF Real FFT optimization must be even. external/libunwind_llvm/src/UnwindCursor.hpp sp misound4 fx lib struct deleted b_enhance_on = %d spk.bin SBE0 MODL s28 dl out, ch: %d, buf fs: %u, read data fs: %u, fmt: 0x%x DoublerMode WA_Limit MMFD s3 s8 d18 d21 d24 DL raw: type = %d, ch: %d, ch mask: 0x%x, fs for pcm: %u, fs for content: %u, fmt = 0x%x, input size = %d UEQ0 s14 s15 d15 d28 misoundfx load param entry %s %d %s(), Misound invalid arg: %s +%s(), key = %s unsupported register class unknown personality routine s27 d26 d27 %s(), scene = %d misound4_arsi_update_param %s %s(), value: %s EQGains -%s(), key value pair =&gt; %s getRegister s17 d1 unknown register misoundfx process dl buf NO_INIT %s %d input device: 0x%x =&gt; 0x%x %s(), key: %s HeadphoneVoiceEnhance ul_digital_gain = %d LMT0 Unknown ARM float register r4 s5 /vendor/etc/misound_res_spk.bin /vendor/etc/misound_res_headphone.bin St16invalid_argument St11logic_error St9exception C /C C zD E E @ F @ 4? zC C zD D zE E E @ 4? E @ 4? zE A 4? St12length_error <br/>? ? ? :A 7 &gt; ?T I? ? SN? ?Ia i? ?n" z\? ? h? ? L d? ? ~r? ? , v? ? ? ? ? ? ?m ? @2 ? ? F &gt; ? o H? ? M? ?| k? ?` S `? ?N k? ? g? ? { &lt;s? ?r @w? ? ? ? ? ? ? ? U? ? &gt; ? g[? ?" `? ? ? v? ? b m p? ? $ t? ? lr? ? } y? ? `{? ? ? ? ? ? ? A B @ A B @ pA B 4 $m { G 4w W G ~ W ; vz :Yh 2 H f Y I vxy w D fy 7 n 4 ( 4 G &lt; Z I 7 " 1 s j a G X l v 8 }8 | A ' G \ [ &lt; ] s C Q 8 H+9 y 8 X Y7J &gt; ! o 8 ! 9 9 TQ9+{ 3 \ E S jU 8 9 : 9 9 J 7e|T ? 8~7 9. 8: _Q:x 1: T 9 5 8 - 9&lt; =8 9 p[: :S : a: b 9 ~ 8 46 9 d:y : : :T&gt; : ? 9g 8 Z{ a~9 J: : 4 : r : : s :R 90q 8e$ 8 s : R :C :/j ; ; 6 : X: @79 9 X: : l ;? $; l ; [ : &amp; 9#sh A9 : ;+T+;f9'; @ :@ I: . U + )9 g :A, ; .; ; X :J0D k 70 L f 8~ : ;: ; :7 . E@&amp; V ' a B : ; : 9 X X O K l 4 &gt; :p : w :M: 4 w _b Xj* pyV: :q z l a 9? Ds; 1y 9 Z2 ) [ ' $ 5 FN3 e ^QC 9t +% v N 2O 5% [ 9 E % Y Kah 2 Ss E* R # : U kj FG I E ;8 ;H EA Q &lt;y &lt;UAP&lt; . 6o A 6 b z C y &lt;Pg = &gt; ;&gt; J&gt; ;&gt; &gt;Pg = &lt;y z C b A 6 6o . UAP&lt;y &lt; &lt; Q EA H 8 ; ; E I FG kj U # : R E* Ss 2 Kah Y % E [ 9 5% 2O v N +% 9t ^QC e FN3 5 $ ' ) [ Z2 1y 9 Ds; 9? a l z q :pyV: Xj* _b 4 w M: w :p : :&gt; 4 K l O X X 9 : ; B : a V ' E@&amp; . :: ; ;~ :f 8 L 70 k J0D X : ; .;A, ; g : )9 + U . @ I: @ :f9';+T+; ; : A9 #sh &amp; 9 [ : l ;? $; l ; : X: 9 @79 X: 6 : ;/j ;C : R : s :e$ 80q 8R 9 s : : r : 4 : : J: a~9 Z{ g 8 ? 9T&gt; : : :y : d:6 9 4 ~ 8 b 9 a:S : : p[: 9 =8 9&lt; - 5 8 T 9x 1: _Q:. 8:~7 9 8 ? e|T J 7 9 9 : 9jU 8 S E 3 \ +{ TQ9 9 ! 9o 8 ! &gt; Y7J X y 8 H+9Q 8s C &lt; ] [ \ G A ' | }8 v 8 l X G a j 1 s " I 7Z &lt; G 4 ( n 47 fy D w vxy Y I f H 2 :Yh vz ; ~ W G W 4w G { $m <br/>.init_array .fini_array .ARM.exidx .text .got .note.android.ident .got.plt .rel.plt .bss .ARM.attributes .dynstr .gnu.version_r .data.rel.ro .rel.dyn .gnu.version .dynsym .gnu.hash .note.gnu.build-id .dynamic .ARM.extab .shstrtab .rodata .gnu_debugdata .data <br/><pre></pre>
</div>
    <div id="footer">
<p><a href="http://opengrok.github.com/OpenGrok/"
 title="Served by OpenGrok"><span id="fti"></span></a></p>
<p>Indexes created Thu Dec 03 14:18:21 CST 2020</p>
    
    </div>
    </div>
</div>
</body>
</html>


